target datalayout = "e-m:e-p270:32:32-p271:32:32-p272:64:64-i64:64-i128:128-f80:128-n8:16:32:64-S128"
target triple = "x86_64-unknown-linux-gnu"

%"class.std::basic_string_view" = type { i64, ptr }
%"class.__gnu_cxx::__normal_iterator" = type { ptr }
%"struct.std::_Vector_base" = type { %"struct.std::_Vector_base<folly::Range<char *>, std::allocator<folly::Range<char *>>>::_Vector_impl" }
%"struct.std::_Vector_base<folly::Range<char *>, std::allocator<folly::Range<char *>>>::_Vector_impl" = type { %"struct.std::_Vector_base<folly::Range<char *>, std::allocator<folly::Range<char *>>>::_Vector_impl_data" }
%"struct.std::_Vector_base<folly::Range<char *>, std::allocator<folly::Range<char *>>>::_Vector_impl_data" = type { ptr, ptr, ptr }
%"class.folly::Range" = type { ptr, ptr }

; Function Attrs: mustprogress nounwind uwtable
define linkonce_odr noundef nonnull align 8 dereferenceable(8) ptr @_ZNK9__gnu_cxx17__normal_iteratorIPKN5folly5RangeIPcEESt6vectorIS4_SaIS4_EEE4baseEv(ptr noundef nonnull align 8 dereferenceable(8) %this) #3 comdat align 2 {
entry:
  %this.addr = alloca ptr, align 8
  store ptr %this, ptr %this.addr, align 8
  %this1 = load ptr, ptr %this.addr, align 8
  %_M_current = getelementptr inbounds %"class.__gnu_cxx::__normal_iterator", ptr %this1, i32 0, i32 0
  ret ptr %_M_current
}

; Function Attrs: mustprogress nounwind uwtable
define linkonce_odr void @_ZN9__gnu_cxx17__normal_iteratorIPKN5folly5RangeIPcEESt6vectorIS4_SaIS4_EEEC2ERKS6_(ptr noundef nonnull align 8 dereferenceable(8) %this, ptr noundef nonnull align 8 dereferenceable(8) %__i) unnamed_addr #3 comdat align 2 {
entry:
  %this.addr = alloca ptr, align 8
  %__i.addr = alloca ptr, align 8
  store ptr %this, ptr %this.addr, align 8
  store ptr %__i, ptr %__i.addr, align 8
  %this1 = load ptr, ptr %this.addr, align 8
  %_M_current = getelementptr inbounds %"class.__gnu_cxx::__normal_iterator", ptr %this1, i32 0, i32 0
  %0 = load ptr, ptr %__i.addr, align 8
  %1 = load ptr, ptr %0, align 8
  store ptr %1, ptr %_M_current, align 8
  ret void
}

; Function Attrs: mustprogress nounwind uwtable
define linkonce_odr noundef nonnull align 8 dereferenceable(8) ptr @_ZN9__gnu_cxx17__normal_iteratorIPKN5folly5RangeIPcEESt6vectorIS4_SaIS4_EEEppEv(ptr noundef nonnull align 8 dereferenceable(8) %this) #3 comdat align 2 {
entry:
  %this.addr = alloca ptr, align 8
  store ptr %this, ptr %this.addr, align 8
  %this1 = load ptr, ptr %this.addr, align 8
  %_M_current = getelementptr inbounds %"class.__gnu_cxx::__normal_iterator", ptr %this1, i32 0, i32 0
  %0 = load ptr, ptr %_M_current, align 8
  %incdec.ptr = getelementptr inbounds %"class.folly::Range", ptr %0, i32 1
  store ptr %incdec.ptr, ptr %_M_current, align 8
  ret ptr %this1
}

; Function Attrs: mustprogress nounwind uwtable
define linkonce_odr noundef ptr @_ZNK5folly5RangeIPcE4dataEv(ptr noundef nonnull align 8 dereferenceable(16) %this) #3 comdat align 2 {
entry:
  %this.addr = alloca ptr, align 8
  store ptr %this, ptr %this.addr, align 8
  %this1 = load ptr, ptr %this.addr, align 8
  %b_ = getelementptr inbounds %"class.folly::Range", ptr %this1, i32 0, i32 0
  %0 = load ptr, ptr %b_, align 8
  ret ptr %0
}

; Function Attrs: mustprogress nounwind uwtable
define linkonce_odr noundef nonnull align 8 dereferenceable(8) ptr @_ZSt3minImERKT_S2_S2_(ptr noundef nonnull align 8 dereferenceable(8) %__a, ptr noundef nonnull align 8 dereferenceable(8) %__b) #3 comdat {
entry:
  %retval = alloca ptr, align 8
  %__a.addr = alloca ptr, align 8
  %__b.addr = alloca ptr, align 8
  store ptr %__a, ptr %__a.addr, align 8
  store ptr %__b, ptr %__b.addr, align 8
  %0 = load ptr, ptr %__b.addr, align 8
  %1 = load i64, ptr %0, align 8
  %2 = load ptr, ptr %__a.addr, align 8
  %3 = load i64, ptr %2, align 8
  %cmp = icmp ult i64 %1, %3
  br i1 %cmp, label %if.then, label %if.end

if.then:                                          ; preds = %entry
  %4 = load ptr, ptr %__b.addr, align 8
  store ptr %4, ptr %retval, align 8
  br label %return

if.end:                                           ; preds = %entry
  %5 = load ptr, ptr %__a.addr, align 8
  store ptr %5, ptr %retval, align 8
  br label %return

return:                                           ; preds = %if.end, %if.then
  %6 = load ptr, ptr %retval, align 8
  ret ptr %6
}

; Function Attrs: mustprogress nounwind uwtable
define linkonce_odr noundef i64 @_ZNK5folly5RangeIPcE4sizeEv(ptr noundef nonnull align 8 dereferenceable(16) %this) #3 comdat align 2 {
entry:
  %this.addr = alloca ptr, align 8
  store ptr %this, ptr %this.addr, align 8
  %this1 = load ptr, ptr %this.addr, align 8
  %e_ = getelementptr inbounds %"class.folly::Range", ptr %this1, i32 0, i32 1
  %0 = load ptr, ptr %e_, align 8
  %b_ = getelementptr inbounds %"class.folly::Range", ptr %this1, i32 0, i32 0
  %1 = load ptr, ptr %b_, align 8
  %sub.ptr.lhs.cast = ptrtoint ptr %0 to i64
  %sub.ptr.rhs.cast = ptrtoint ptr %1 to i64
  %sub.ptr.sub = sub i64 %sub.ptr.lhs.cast, %sub.ptr.rhs.cast
  ret i64 %sub.ptr.sub
}

; Function Attrs: mustprogress nounwind uwtable
define linkonce_odr noundef nonnull align 8 dereferenceable(16) ptr @_ZNK9__gnu_cxx17__normal_iteratorIPKN5folly5RangeIPcEESt6vectorIS4_SaIS4_EEEdeEv(ptr noundef nonnull align 8 dereferenceable(8) %this) #3 comdat align 2 {
entry:
  %this.addr = alloca ptr, align 8
  store ptr %this, ptr %this.addr, align 8
  %this1 = load ptr, ptr %this.addr, align 8
  %_M_current = getelementptr inbounds %"class.__gnu_cxx::__normal_iterator", ptr %this1, i32 0, i32 0
  %0 = load ptr, ptr %_M_current, align 8
  ret ptr %0
}

; Function Attrs: mustprogress nounwind uwtable
define linkonce_odr noundef zeroext i1 @_ZN9__gnu_cxxneIPKN5folly5RangeIPcEESt6vectorIS4_SaIS4_EEEEbRKNS_17__normal_iteratorIT_T0_EESF_(ptr noundef nonnull align 8 dereferenceable(8) %__lhs, ptr noundef nonnull align 8 dereferenceable(8) %__rhs) #3 comdat {
entry:
  %__lhs.addr = alloca ptr, align 8
  %__rhs.addr = alloca ptr, align 8
  store ptr %__lhs, ptr %__lhs.addr, align 8
  store ptr %__rhs, ptr %__rhs.addr, align 8
  %0 = load ptr, ptr %__lhs.addr, align 8
  %call = call noundef nonnull align 8 dereferenceable(8) ptr @_ZNK9__gnu_cxx17__normal_iteratorIPKN5folly5RangeIPcEESt6vectorIS4_SaIS4_EEE4baseEv(ptr noundef nonnull align 8 dereferenceable(8) %0) #9
  %1 = load ptr, ptr %call, align 8
  %2 = load ptr, ptr %__rhs.addr, align 8
  %call1 = call noundef nonnull align 8 dereferenceable(8) ptr @_ZNK9__gnu_cxx17__normal_iteratorIPKN5folly5RangeIPcEESt6vectorIS4_SaIS4_EEE4baseEv(ptr noundef nonnull align 8 dereferenceable(8) %2) #9
  %3 = load ptr, ptr %call1, align 8
  %cmp = icmp ne ptr %1, %3
  ret i1 %cmp
}

; Function Attrs: mustprogress nounwind uwtable
define linkonce_odr ptr @_ZNKSt6vectorIN5folly5RangeIPcEESaIS3_EE3endEv(ptr noundef nonnull align 8 dereferenceable(24) %this) #3 comdat align 2 {
entry:
  %retval = alloca %"class.__gnu_cxx::__normal_iterator", align 8
  %this.addr = alloca ptr, align 8
  store ptr %this, ptr %this.addr, align 8
  %this1 = load ptr, ptr %this.addr, align 8
  %_M_impl = getelementptr inbounds %"struct.std::_Vector_base", ptr %this1, i32 0, i32 0
  %_M_finish = getelementptr inbounds %"struct.std::_Vector_base<folly::Range<char *>, std::allocator<folly::Range<char *>>>::_Vector_impl_data", ptr %_M_impl, i32 0, i32 1
  call void @_ZN9__gnu_cxx17__normal_iteratorIPKN5folly5RangeIPcEESt6vectorIS4_SaIS4_EEEC2ERKS6_(ptr noundef nonnull align 8 dereferenceable(8) %retval, ptr noundef nonnull align 8 dereferenceable(8) %_M_finish) #9
  %coerce.dive = getelementptr inbounds %"class.__gnu_cxx::__normal_iterator", ptr %retval, i32 0, i32 0
  %0 = load ptr, ptr %coerce.dive, align 8
  ret ptr %0
}

; Function Attrs: mustprogress nounwind uwtable
define linkonce_odr ptr @_ZNKSt6vectorIN5folly5RangeIPcEESaIS3_EE5beginEv(ptr noundef nonnull align 8 dereferenceable(24) %this) #3 comdat align 2 {
entry:
  %retval = alloca %"class.__gnu_cxx::__normal_iterator", align 8
  %this.addr = alloca ptr, align 8
  store ptr %this, ptr %this.addr, align 8
  %this1 = load ptr, ptr %this.addr, align 8
  %_M_impl = getelementptr inbounds %"struct.std::_Vector_base", ptr %this1, i32 0, i32 0
  %_M_start = getelementptr inbounds %"struct.std::_Vector_base<folly::Range<char *>, std::allocator<folly::Range<char *>>>::_Vector_impl_data", ptr %_M_impl, i32 0, i32 0
  call void @_ZN9__gnu_cxx17__normal_iteratorIPKN5folly5RangeIPcEESt6vectorIS4_SaIS4_EEEC2ERKS6_(ptr noundef nonnull align 8 dereferenceable(8) %retval, ptr noundef nonnull align 8 dereferenceable(8) %_M_start) #9
  %coerce.dive = getelementptr inbounds %"class.__gnu_cxx::__normal_iterator", ptr %retval, i32 0, i32 0
  %0 = load ptr, ptr %coerce.dive, align 8
  ret ptr %0
}

; Function Attrs: mustprogress uwtable
define noundef i64 @_ZNK8facebook5velox8ReadFile6preadvEmRKSt6vectorIN5folly5RangeIPcEESaIS6_EE(ptr noundef nonnull align 8 dereferenceable(16) %this, i64 noundef %offset, ptr noundef nonnull align 8 dereferenceable(24) %buffers) unnamed_addr #0 align 2 {
entry:
  %retval = alloca i64, align 8
  %this.addr = alloca ptr, align 8
  %offset.addr = alloca i64, align 8
  %buffers.addr = alloca ptr, align 8
  %fileSize = alloca i64, align 8
  %numRead = alloca i64, align 8
  %__range2 = alloca ptr, align 8
  %__begin2 = alloca %"class.__gnu_cxx::__normal_iterator", align 8
  %__end2 = alloca %"class.__gnu_cxx::__normal_iterator", align 8
  %range = alloca ptr, align 8
  %copySize = alloca i64, align 8
  %ref.tmp = alloca i64, align 8
  %ref.tmp8 = alloca i64, align 8
  %coerce = alloca %"class.std::basic_string_view", align 8
  store ptr %this, ptr %this.addr, align 8
  store i64 %offset, ptr %offset.addr, align 8
  store ptr %buffers, ptr %buffers.addr, align 8
  %this1 = load ptr, ptr %this.addr, align 8
  %vtable = load ptr, ptr %this1, align 8
  %vfn = getelementptr inbounds ptr, ptr %vtable, i64 9
  %0 = load ptr, ptr %vfn, align 8
  %call = call noundef i64 %0(ptr noundef nonnull align 8 dereferenceable(16) %this1)
  store i64 %call, ptr %fileSize, align 8
  store i64 0, ptr %numRead, align 8
  %1 = load i64, ptr %offset.addr, align 8
  %2 = load i64, ptr %fileSize, align 8
  %cmp = icmp uge i64 %1, %2
  br i1 %cmp, label %if.then, label %if.end

if.then:                                          ; preds = %entry
  store i64 0, ptr %retval, align 8
  br label %return

if.end:                                           ; preds = %entry
  %3 = load ptr, ptr %buffers.addr, align 8
  store ptr %3, ptr %__range2, align 8
  %4 = load ptr, ptr %__range2, align 8
  %call2 = call ptr @_ZNKSt6vectorIN5folly5RangeIPcEESaIS3_EE5beginEv(ptr noundef nonnull align 8 dereferenceable(24) %4) #9
  %coerce.dive = getelementptr inbounds %"class.__gnu_cxx::__normal_iterator", ptr %__begin2, i32 0, i32 0
  store ptr %call2, ptr %coerce.dive, align 8
  %5 = load ptr, ptr %__range2, align 8
  %call3 = call ptr @_ZNKSt6vectorIN5folly5RangeIPcEESaIS3_EE3endEv(ptr noundef nonnull align 8 dereferenceable(24) %5) #9
  %coerce.dive4 = getelementptr inbounds %"class.__gnu_cxx::__normal_iterator", ptr %__end2, i32 0, i32 0
  store ptr %call3, ptr %coerce.dive4, align 8
  br label %for.cond

for.cond:                                         ; preds = %for.inc, %if.end
  %call5 = call noundef zeroext i1 @_ZN9__gnu_cxxneIPKN5folly5RangeIPcEESt6vectorIS4_SaIS4_EEEEbRKNS_17__normal_iteratorIT_T0_EESF_(ptr noundef nonnull align 8 dereferenceable(8) %__begin2, ptr noundef nonnull align 8 dereferenceable(8) %__end2) #9
  br i1 %call5, label %for.body, label %for.end

for.body:                                         ; preds = %for.cond
  %call6 = call noundef nonnull align 8 dereferenceable(16) ptr @_ZNK9__gnu_cxx17__normal_iteratorIPKN5folly5RangeIPcEESt6vectorIS4_SaIS4_EEEdeEv(ptr noundef nonnull align 8 dereferenceable(8) %__begin2) #9
  store ptr %call6, ptr %range, align 8
  %6 = load ptr, ptr %range, align 8
  %call7 = call noundef i64 @_ZNK5folly5RangeIPcE4sizeEv(ptr noundef nonnull align 8 dereferenceable(16) %6)
  store i64 %call7, ptr %ref.tmp, align 8
  %7 = load i64, ptr %fileSize, align 8
  %8 = load i64, ptr %offset.addr, align 8
  %sub = sub i64 %7, %8
  store i64 %sub, ptr %ref.tmp8, align 8
  %call9 = call noundef nonnull align 8 dereferenceable(8) ptr @_ZSt3minImERKT_S2_S2_(ptr noundef nonnull align 8 dereferenceable(8) %ref.tmp, ptr noundef nonnull align 8 dereferenceable(8) %ref.tmp8)
  %9 = load i64, ptr %call9, align 8
  store i64 %9, ptr %copySize, align 8
  %10 = load ptr, ptr %range, align 8
  %call10 = call noundef ptr @_ZNK5folly5RangeIPcE4dataEv(ptr noundef nonnull align 8 dereferenceable(16) %10)
  %cmp11 = icmp ne ptr %call10, null
  br i1 %cmp11, label %if.then12, label %if.end17

if.then12:                                        ; preds = %for.body
  %11 = load i64, ptr %offset.addr, align 8
  %12 = load i64, ptr %copySize, align 8
  %13 = load ptr, ptr %range, align 8
  %call13 = call noundef ptr @_ZNK5folly5RangeIPcE4dataEv(ptr noundef nonnull align 8 dereferenceable(16) %13)
  %vtable14 = load ptr, ptr %this1, align 8
  %vfn15 = getelementptr inbounds ptr, ptr %vtable14, i64 2
  %14 = load ptr, ptr %vfn15, align 8
  %call16 = call { i64, ptr } %14(ptr noundef nonnull align 8 dereferenceable(16) %this1, i64 noundef %11, i64 noundef %12, ptr noundef %call13)
  %15 = getelementptr inbounds { i64, ptr }, ptr %coerce, i32 0, i32 0
  %16 = extractvalue { i64, ptr } %call16, 0
  store i64 %16, ptr %15, align 8
  %17 = getelementptr inbounds { i64, ptr }, ptr %coerce, i32 0, i32 1
  %18 = extractvalue { i64, ptr } %call16, 1
  store ptr %18, ptr %17, align 8
  br label %if.end17

if.end17:                                         ; preds = %if.then12, %for.body
  %19 = load i64, ptr %copySize, align 8
  %20 = load i64, ptr %offset.addr, align 8
  %add = add i64 %20, %19
  store i64 %add, ptr %offset.addr, align 8
  %21 = load i64, ptr %copySize, align 8
  %22 = load i64, ptr %numRead, align 8
  %add18 = add i64 %22, %21
  store i64 %add18, ptr %numRead, align 8
  br label %for.inc

for.inc:                                          ; preds = %if.end17
  %call19 = call noundef nonnull align 8 dereferenceable(8) ptr @_ZN9__gnu_cxx17__normal_iteratorIPKN5folly5RangeIPcEESt6vectorIS4_SaIS4_EEEppEv(ptr noundef nonnull align 8 dereferenceable(8) %__begin2) #9
  br label %for.cond

for.end:                                          ; preds = %for.cond
  %23 = load i64, ptr %numRead, align 8
  store i64 %23, ptr %retval, align 8
  br label %return

return:                                           ; preds = %for.end, %if.then
  %24 = load i64, ptr %retval, align 8
  ret i64 %24
}