; Function Attrs: mustprogress uwtable
define noundef i64 @_ZNK8facebook5velox8ReadFile6preadvEmRKSt6vectorIN5folly5RangeIPcEESaIS6_EE(ptr noundef nonnull align 8 dereferenceable(16) %this, i64 noundef %offset, ptr nocapture noundef nonnull readonly align 8 dereferenceable(24) %buffers) unnamed_addr #0 align 2 {
entry:
  %vtable = load ptr, ptr %this, align 8
  %vfn = getelementptr inbounds i8, ptr %vtable, i64 72
  %0 = load ptr, ptr %vfn, align 8
  %call = tail call noundef i64 %0(ptr noundef nonnull align 8 dereferenceable(16) %this)
  %cmp.not = icmp ugt i64 %call, %offset
  br i1 %cmp.not, label %if.end, label %return

if.end:                                           ; preds = %entry
  %1 = load ptr, ptr %buffers, align 8
  %_M_finish.i = getelementptr inbounds i8, ptr %buffers, i64 8
  %2 = load ptr, ptr %_M_finish.i, align 8
  %cmp.i.not16 = icmp eq ptr %1, %2
  br i1 %cmp.i.not16, label %return, label %for.body

for.body:                                         ; preds = %if.end, %if.end17
  %offset.addr.019 = phi i64 [ %add, %if.end17 ], [ %offset, %if.end ]
  %numRead.018 = phi i64 [ %add18, %if.end17 ], [ 0, %if.end ]
  %__begin2.sroa.0.017 = phi ptr [ %incdec.ptr.i, %if.end17 ], [ %1, %if.end ]
  %e_.i = getelementptr inbounds i8, ptr %__begin2.sroa.0.017, i64 8
  %3 = load ptr, ptr %e_.i, align 8
  %4 = load ptr, ptr %__begin2.sroa.0.017, align 8
  %sub.ptr.lhs.cast.i = ptrtoint ptr %3 to i64
  %sub.ptr.rhs.cast.i = ptrtoint ptr %4 to i64
  %sub.ptr.sub.i = sub i64 %sub.ptr.lhs.cast.i, %sub.ptr.rhs.cast.i
  %sub = sub i64 %call, %offset.addr.019
  %.sroa.speculated = tail call i64 @llvm.umin.i64(i64 %sub, i64 %sub.ptr.sub.i)
  %cmp11.not = icmp eq ptr %4, null
  br i1 %cmp11.not, label %if.end17, label %if.then12

if.then12:                                        ; preds = %for.body
  %vtable14 = load ptr, ptr %this, align 8
  %vfn15 = getelementptr inbounds i8, ptr %vtable14, i64 16
  %5 = load ptr, ptr %vfn15, align 8
  %call16 = tail call { i64, ptr } %5(ptr noundef nonnull align 8 dereferenceable(16) %this, i64 noundef %offset.addr.019, i64 noundef %.sroa.speculated, ptr noundef nonnull %4)
  br label %if.end17

if.end17:                                         ; preds = %if.then12, %for.body
  %add = add i64 %.sroa.speculated, %offset.addr.019
  %add18 = add i64 %.sroa.speculated, %numRead.018
  %incdec.ptr.i = getelementptr inbounds i8, ptr %__begin2.sroa.0.017, i64 16
  %cmp.i.not = icmp eq ptr %incdec.ptr.i, %2
  br i1 %cmp.i.not, label %return, label %for.body

return:                                           ; preds = %if.end17, %if.end, %entry
  %retval.0 = phi i64 [ 0, %entry ], [ 0, %if.end ], [ %add18, %if.end17 ]
  ret i64 %retval.0
}